; Function Attrs: mustprogress uwtable
define void @_ZN6icu_7713UnicodeStringC2EPKciS2_(ptr noundef nonnull align 8 dereferenceable(64) initializes((0, 10)) %0, ptr noundef %1, i32 noundef %2, ptr noundef %3) unnamed_addr #0 align 2 personality ptr @__gxx_personality_v0 {
  store ptr getelementptr inbounds nuw inrange(-16, 88) (i8, ptr @_ZTVN6icu_7713UnicodeStringE, i64 16), ptr %0, align 8, !tbaa !3
  %5 = getelementptr inbounds nuw i8, ptr %0, i64 8
  store i16 2, ptr %5, align 8, !tbaa !6
  %.not = icmp eq ptr %1, null
  br i1 %.not, label %9, label %6

6:                                                ; preds = %4
  invoke void @_ZN6icu_7713UnicodeString16doCodepageCreateEPKciS2_(ptr noundef nonnull align 8 dereferenceable(64) %0, ptr noundef nonnull %1, i32 noundef %2, ptr noundef %3)
          to label %9 unwind label %7

7:                                                ; preds = %6
  %8 = landingpad { ptr, i32 }
          cleanup
  tail call void @_ZN6icu_7711ReplaceableD2Ev(ptr noundef nonnull align 8 dereferenceable(8) %0) #7
  resume { ptr, i32 } %8

9:                                                ; preds = %6, %4
  ret void
}